; Function Attrs: mustprogress uwtable
define dso_local void @_Z15luaL_pushresultP11luaL_Strbuf(ptr noundef %0) local_unnamed_addr #2 {
  %2 = getelementptr inbounds i8, ptr %0, i64 16
  %3 = load ptr, ptr %2, align 8
  %4 = getelementptr inbounds i8, ptr %0, i64 24
  %5 = load ptr, ptr %4, align 8
  %.not = icmp eq ptr %5, null
  br i1 %.not, label %33, label %6

6:                                                ; preds = %1
  %7 = getelementptr inbounds i8, ptr %3, i64 24
  %8 = load ptr, ptr %7, align 8
  %9 = getelementptr inbounds i8, ptr %8, i64 72
  %10 = load i64, ptr %9, align 8
  %11 = getelementptr inbounds i8, ptr %8, i64 64
  %12 = load i64, ptr %11, align 8
  %.not25 = icmp ult i64 %10, %12
  br i1 %.not25, label %15, label %13

13:                                               ; preds = %6
  %14 = tail call noundef i64 @_Z9luaC_stepP9lua_Stateb(ptr noundef nonnull %3, i1 noundef zeroext true)
  br label %15

15:                                               ; preds = %6, %13
  %16 = load ptr, ptr %0, align 8
  %17 = getelementptr inbounds i8, ptr %0, i64 8
  %18 = load ptr, ptr %17, align 8
  %19 = icmp eq ptr %16, %18
  %20 = getelementptr inbounds i8, ptr %3, i64 8
  %21 = load ptr, ptr %20, align 8
  %22 = getelementptr inbounds i8, ptr %21, i64 -16
  br i1 %19, label %23, label %26

23:                                               ; preds = %15
  %24 = tail call noundef ptr @_Z14luaS_buffinishP9lua_StateP7TString(ptr noundef nonnull %3, ptr noundef nonnull %5)
  store ptr %24, ptr %22, align 8
  %25 = getelementptr inbounds i8, ptr %21, i64 -4
  store i32 5, ptr %25, align 4
  br label %39

26:                                               ; preds = %15
  %27 = getelementptr inbounds i8, ptr %5, i64 24
  %28 = ptrtoint ptr %16 to i64
  %29 = ptrtoint ptr %27 to i64
  %30 = sub i64 %28, %29
  %31 = tail call noundef ptr @_Z12luaS_newlstrP9lua_StatePKcm(ptr noundef nonnull %3, ptr noundef nonnull %27, i64 noundef %30)
  store ptr %31, ptr %22, align 8
  %32 = getelementptr inbounds i8, ptr %21, i64 -4
  store i32 5, ptr %32, align 4
  br label %39

33:                                               ; preds = %1
  %34 = getelementptr inbounds i8, ptr %0, i64 32
  %35 = load ptr, ptr %0, align 8
  %36 = ptrtoint ptr %35 to i64
  %37 = ptrtoint ptr %34 to i64
  %38 = sub i64 %36, %37
  tail call void @_Z15lua_pushlstringP9lua_StatePKcm(ptr noundef %3, ptr noundef nonnull %34, i64 noundef %38)
  br label %39

39:                                               ; preds = %23, %26, %33
  ret void
}